; Function Attrs: nounwind uwtable
define void @lv_obj_get_content_coords(ptr noundef %0, ptr nocapture noundef %1) local_unnamed_addr #0 {
  %3 = getelementptr inbounds nuw i8, ptr %0, i64 40
  %4 = load i32, ptr %3, align 4, !tbaa !31
  store i32 %4, ptr %1, align 4, !tbaa !31
  %5 = getelementptr inbounds nuw i8, ptr %0, i64 44
  %6 = load i32, ptr %5, align 4, !tbaa !32
  %7 = getelementptr inbounds nuw i8, ptr %1, i64 4
  store i32 %6, ptr %7, align 4, !tbaa !32
  %8 = getelementptr inbounds nuw i8, ptr %0, i64 48
  %9 = load i32, ptr %8, align 4, !tbaa !33
  %10 = getelementptr inbounds nuw i8, ptr %1, i64 8
  store i32 %9, ptr %10, align 4, !tbaa !33
  %11 = getelementptr inbounds nuw i8, ptr %0, i64 52
  %12 = load i32, ptr %11, align 4, !tbaa !34
  %13 = getelementptr inbounds nuw i8, ptr %1, i64 12
  store i32 %12, ptr %13, align 4, !tbaa !34
  %14 = tail call ptr @lv_obj_get_style_prop(ptr noundef %0, i32 noundef 0, i8 noundef zeroext 18) #8
  %15 = ptrtoint ptr %14 to i64
  %.sroa.0.0.extract.trunc.i.i = trunc i64 %15 to i32
  %16 = tail call ptr @lv_obj_get_style_prop(ptr noundef %0, i32 noundef 0, i8 noundef zeroext 48) #8
  %17 = ptrtoint ptr %16 to i64
  %.sroa.0.0.extract.trunc.i9.i = trunc i64 %17 to i32
  %18 = tail call ptr @lv_obj_get_style_prop(ptr noundef %0, i32 noundef 0, i8 noundef zeroext 52) #8
  %19 = ptrtoint ptr %18 to i64
  %20 = and i64 %19, 4
  %.not.i = icmp eq i64 %20, 0
  %21 = select i1 %.not.i, i32 0, i32 %.sroa.0.0.extract.trunc.i9.i
  %22 = load i32, ptr %1, align 4, !tbaa !31
  %23 = add i32 %22, %.sroa.0.0.extract.trunc.i.i
  %24 = add i32 %23, %21
  store i32 %24, ptr %1, align 4, !tbaa !31
  %25 = tail call ptr @lv_obj_get_style_prop(ptr noundef %0, i32 noundef 0, i8 noundef zeroext 19) #8
  %26 = ptrtoint ptr %25 to i64
  %.sroa.0.0.extract.trunc.i.i10 = trunc i64 %26 to i32
  %27 = tail call ptr @lv_obj_get_style_prop(ptr noundef %0, i32 noundef 0, i8 noundef zeroext 48) #8
  %28 = ptrtoint ptr %27 to i64
  %.sroa.0.0.extract.trunc.i9.i11 = trunc i64 %28 to i32
  %29 = tail call ptr @lv_obj_get_style_prop(ptr noundef %0, i32 noundef 0, i8 noundef zeroext 52) #8
  %30 = ptrtoint ptr %29 to i64
  %31 = and i64 %30, 8
  %.not.i12 = icmp eq i64 %31, 0
  %32 = select i1 %.not.i12, i32 0, i32 %.sroa.0.0.extract.trunc.i9.i11
  %33 = load i32, ptr %10, align 4, !tbaa !33
  %34 = add i32 %32, %.sroa.0.0.extract.trunc.i.i10
  %35 = sub i32 %33, %34
  store i32 %35, ptr %10, align 4, !tbaa !33
  %36 = tail call ptr @lv_obj_get_style_prop(ptr noundef %0, i32 noundef 0, i8 noundef zeroext 16) #8
  %37 = ptrtoint ptr %36 to i64
  %.sroa.0.0.extract.trunc.i.i13 = trunc i64 %37 to i32
  %38 = tail call ptr @lv_obj_get_style_prop(ptr noundef %0, i32 noundef 0, i8 noundef zeroext 48) #8
  %39 = ptrtoint ptr %38 to i64
  %.sroa.0.0.extract.trunc.i9.i14 = trunc i64 %39 to i32
  %40 = tail call ptr @lv_obj_get_style_prop(ptr noundef %0, i32 noundef 0, i8 noundef zeroext 52) #8
  %41 = ptrtoint ptr %40 to i64
  %42 = and i64 %41, 2
  %.not.i15 = icmp eq i64 %42, 0
  %43 = select i1 %.not.i15, i32 0, i32 %.sroa.0.0.extract.trunc.i9.i14
  %44 = load i32, ptr %7, align 4, !tbaa !32
  %45 = add i32 %44, %.sroa.0.0.extract.trunc.i.i13
  %46 = add i32 %45, %43
  store i32 %46, ptr %7, align 4, !tbaa !32
  %47 = tail call ptr @lv_obj_get_style_prop(ptr noundef %0, i32 noundef 0, i8 noundef zeroext 17) #8
  %48 = ptrtoint ptr %47 to i64
  %.sroa.0.0.extract.trunc.i.i16 = trunc i64 %48 to i32
  %49 = tail call ptr @lv_obj_get_style_prop(ptr noundef %0, i32 noundef 0, i8 noundef zeroext 48) #8
  %50 = ptrtoint ptr %49 to i64
  %.sroa.0.0.extract.trunc.i9.i17 = trunc i64 %50 to i32
  %51 = tail call ptr @lv_obj_get_style_prop(ptr noundef %0, i32 noundef 0, i8 noundef zeroext 52) #8
  %52 = ptrtoint ptr %51 to i64
  %53 = and i64 %52, 1
  %.not.i18 = icmp eq i64 %53, 0
  %54 = select i1 %.not.i18, i32 0, i32 %.sroa.0.0.extract.trunc.i9.i17
  %55 = load i32, ptr %13, align 4, !tbaa !34
  %56 = add i32 %54, %.sroa.0.0.extract.trunc.i.i16
  %57 = sub i32 %55, %56
  store i32 %57, ptr %13, align 4, !tbaa !34
  ret void
}